target datalayout = "e-m:e-p270:32:32-p271:32:32-p272:64:64-i64:64-i128:128-f80:128-n8:16:32:64-S128"
target triple = "x86_64-unknown-linux-gnu"

%struct.UText = type { i32, i32, i32, i32, i64, i32, i32, i64, i32, i32, ptr, ptr, ptr, ptr, ptr, ptr, ptr, ptr, i64, i32, i32, i64, i32, i32 }

; Function Attrs: mustprogress nounwind uwtable
define internal noundef i32 @_ZL8pinIndexRll(ptr noundef nonnull align 8 dereferenceable(8) %index, i64 noundef %limit) #1 {
entry:
  %index.addr = alloca ptr, align 8
  %limit.addr = alloca i64, align 8
  store ptr %index, ptr %index.addr, align 8
  store i64 %limit, ptr %limit.addr, align 8
  %0 = load ptr, ptr %index.addr, align 8
  %1 = load i64, ptr %0, align 8
  %cmp = icmp slt i64 %1, 0
  br i1 %cmp, label %if.then, label %if.else

if.then:                                          ; preds = %entry
  %2 = load ptr, ptr %index.addr, align 8
  store i64 0, ptr %2, align 8
  br label %if.end3

if.else:                                          ; preds = %entry
  %3 = load ptr, ptr %index.addr, align 8
  %4 = load i64, ptr %3, align 8
  %5 = load i64, ptr %limit.addr, align 8
  %cmp1 = icmp sgt i64 %4, %5
  br i1 %cmp1, label %if.then2, label %if.end

if.then2:                                         ; preds = %if.else
  %6 = load i64, ptr %limit.addr, align 8
  %7 = load ptr, ptr %index.addr, align 8
  store i64 %6, ptr %7, align 8
  br label %if.end

if.end:                                           ; preds = %if.then2, %if.else
  br label %if.end3

if.end3:                                          ; preds = %if.end, %if.then
  %8 = load ptr, ptr %index.addr, align 8
  %9 = load i64, ptr %8, align 8
  %conv = trunc i64 %9 to i32
  ret i32 %conv
}

; Function Attrs: mustprogress nounwind uwtable
define internal noundef signext i8 @_ZL9U_FAILURE10UErrorCode(i32 noundef %code) #1 {
entry:
  %code.addr = alloca i32, align 4
  store i32 %code, ptr %code.addr, align 4
  %0 = load i32, ptr %code.addr, align 4
  %cmp = icmp sgt i32 %0, 0
  %conv = zext i1 %cmp to i8
  ret i8 %conv
}

; Function Attrs: mustprogress uwtable
define internal noundef i32 @_ZL16ucstrTextExtractP5UTextllPDsiP10UErrorCode(ptr noundef %ut, i64 noundef %start, i64 noundef %limit, ptr noundef %dest, i32 noundef %destCapacity, ptr noundef %pErrorCode) #0 {
entry:
  %retval = alloca i32, align 4
  %ut.addr = alloca ptr, align 8
  %start.addr = alloca i64, align 8
  %limit.addr = alloca i64, align 8
  %dest.addr = alloca ptr, align 8
  %destCapacity.addr = alloca i32, align 4
  %pErrorCode.addr = alloca ptr, align 8
  %si = alloca i32, align 4
  %di = alloca i32, align 4
  %start32 = alloca i32, align 4
  %limit32 = alloca i32, align 4
  %s = alloca ptr, align 8
  %strLength = alloca i32, align 4
  store ptr %ut, ptr %ut.addr, align 8
  store i64 %start, ptr %start.addr, align 8
  store i64 %limit, ptr %limit.addr, align 8
  store ptr %dest, ptr %dest.addr, align 8
  store i32 %destCapacity, ptr %destCapacity.addr, align 4
  store ptr %pErrorCode, ptr %pErrorCode.addr, align 8
  %0 = load ptr, ptr %pErrorCode.addr, align 8
  %1 = load i32, ptr %0, align 4
  %call = call noundef signext i8 @_ZL9U_FAILURE10UErrorCode(i32 noundef %1)
  %tobool = icmp ne i8 %call, 0
  br i1 %tobool, label %if.then, label %if.end

if.then:                                          ; preds = %entry
  store i32 0, ptr %retval, align 4
  br label %return

if.end:                                           ; preds = %entry
  %2 = load i32, ptr %destCapacity.addr, align 4
  %cmp = icmp slt i32 %2, 0
  br i1 %cmp, label %if.then5, label %lor.lhs.false

lor.lhs.false:                                    ; preds = %if.end
  %3 = load ptr, ptr %dest.addr, align 8
  %cmp1 = icmp eq ptr %3, null
  br i1 %cmp1, label %land.lhs.true, label %lor.lhs.false3

land.lhs.true:                                    ; preds = %lor.lhs.false
  %4 = load i32, ptr %destCapacity.addr, align 4
  %cmp2 = icmp sgt i32 %4, 0
  br i1 %cmp2, label %if.then5, label %lor.lhs.false3

lor.lhs.false3:                                   ; preds = %land.lhs.true, %lor.lhs.false
  %5 = load i64, ptr %start.addr, align 8
  %6 = load i64, ptr %limit.addr, align 8
  %cmp4 = icmp sgt i64 %5, %6
  br i1 %cmp4, label %if.then5, label %if.end6

if.then5:                                         ; preds = %lor.lhs.false3, %land.lhs.true, %if.end
  %7 = load ptr, ptr %pErrorCode.addr, align 8
  store i32 1, ptr %7, align 4
  store i32 0, ptr %retval, align 4
  br label %return

if.end6:                                          ; preds = %lor.lhs.false3
  %8 = load ptr, ptr %ut.addr, align 8
  %9 = load i64, ptr %start.addr, align 8
  %call7 = call noundef signext i8 @_ZL15ucstrTextAccessP5UTextla(ptr noundef %8, i64 noundef %9, i8 noundef signext 1)
  %10 = load ptr, ptr %ut.addr, align 8
  %chunkContents = getelementptr inbounds %struct.UText, ptr %10, i32 0, i32 10
  %11 = load ptr, ptr %chunkContents, align 8
  store ptr %11, ptr %s, align 8
  %12 = load ptr, ptr %ut.addr, align 8
  %chunkOffset = getelementptr inbounds %struct.UText, ptr %12, i32 0, i32 8
  %13 = load i32, ptr %chunkOffset, align 8
  store i32 %13, ptr %start32, align 4
  %14 = load ptr, ptr %ut.addr, align 8
  %a = getelementptr inbounds %struct.UText, ptr %14, i32 0, i32 18
  %15 = load i64, ptr %a, align 8
  %conv = trunc i64 %15 to i32
  store i32 %conv, ptr %strLength, align 4
  %16 = load i32, ptr %strLength, align 4
  %cmp8 = icmp sge i32 %16, 0
  br i1 %cmp8, label %if.then9, label %if.else

if.then9:                                         ; preds = %if.end6
  %17 = load i32, ptr %strLength, align 4
  %conv10 = sext i32 %17 to i64
  %call11 = call noundef i32 @_ZL8pinIndexRll(ptr noundef nonnull align 8 dereferenceable(8) %limit.addr, i64 noundef %conv10)
  store i32 %call11, ptr %limit32, align 4
  br label %if.end13

if.else:                                          ; preds = %if.end6
  %call12 = call noundef i32 @_ZL8pinIndexRll(ptr noundef nonnull align 8 dereferenceable(8) %limit.addr, i64 noundef 2147483647)
  store i32 %call12, ptr %limit32, align 4
  br label %if.end13

if.end13:                                         ; preds = %if.else, %if.then9
  store i32 0, ptr %di, align 4
  %18 = load i32, ptr %start32, align 4
  store i32 %18, ptr %si, align 4
  br label %for.cond

for.cond:                                         ; preds = %for.inc, %if.end13
  %19 = load i32, ptr %si, align 4
  %20 = load i32, ptr %limit32, align 4
  %cmp14 = icmp slt i32 %19, %20
  br i1 %cmp14, label %for.body, label %for.end

for.body:                                         ; preds = %for.cond
  %21 = load i32, ptr %strLength, align 4
  %cmp15 = icmp slt i32 %21, 0
  br i1 %cmp15, label %land.lhs.true16, label %if.end23

land.lhs.true16:                                  ; preds = %for.body
  %22 = load ptr, ptr %s, align 8
  %23 = load i32, ptr %si, align 4
  %idxprom = sext i32 %23 to i64
  %arrayidx = getelementptr inbounds i16, ptr %22, i64 %idxprom
  %24 = load i16, ptr %arrayidx, align 2
  %conv17 = zext i16 %24 to i32
  %cmp18 = icmp eq i32 %conv17, 0
  br i1 %cmp18, label %if.then19, label %if.end23

if.then19:                                        ; preds = %land.lhs.true16
  %25 = load i32, ptr %si, align 4
  %conv20 = sext i32 %25 to i64
  %26 = load ptr, ptr %ut.addr, align 8
  %a21 = getelementptr inbounds %struct.UText, ptr %26, i32 0, i32 18
  store i64 %conv20, ptr %a21, align 8
  %27 = load i32, ptr %si, align 4
  %conv22 = sext i32 %27 to i64
  %28 = load ptr, ptr %ut.addr, align 8
  %chunkNativeLimit = getelementptr inbounds %struct.UText, ptr %28, i32 0, i32 4
  store i64 %conv22, ptr %chunkNativeLimit, align 8
  %29 = load i32, ptr %si, align 4
  %30 = load ptr, ptr %ut.addr, align 8
  %chunkLength = getelementptr inbounds %struct.UText, ptr %30, i32 0, i32 9
  store i32 %29, ptr %chunkLength, align 4
  %31 = load i32, ptr %si, align 4
  %32 = load ptr, ptr %ut.addr, align 8
  %nativeIndexingLimit = getelementptr inbounds %struct.UText, ptr %32, i32 0, i32 6
  store i32 %31, ptr %nativeIndexingLimit, align 4
  %33 = load i32, ptr %si, align 4
  store i32 %33, ptr %strLength, align 4
  %34 = load i32, ptr %si, align 4
  store i32 %34, ptr %limit32, align 4
  br label %for.end

if.end23:                                         ; preds = %land.lhs.true16, %for.body
  %35 = load i32, ptr %di, align 4
  %36 = load i32, ptr %destCapacity.addr, align 4
  %cmp24 = icmp slt i32 %35, %36
  br i1 %cmp24, label %if.then25, label %if.else30

if.then25:                                        ; preds = %if.end23
  %37 = load ptr, ptr %s, align 8
  %38 = load i32, ptr %si, align 4
  %idxprom26 = sext i32 %38 to i64
  %arrayidx27 = getelementptr inbounds i16, ptr %37, i64 %idxprom26
  %39 = load i16, ptr %arrayidx27, align 2
  %40 = load ptr, ptr %dest.addr, align 8
  %41 = load i32, ptr %di, align 4
  %idxprom28 = sext i32 %41 to i64
  %arrayidx29 = getelementptr inbounds i16, ptr %40, i64 %idxprom28
  store i16 %39, ptr %arrayidx29, align 2
  br label %if.end34

if.else30:                                        ; preds = %if.end23
  %42 = load i32, ptr %strLength, align 4
  %cmp31 = icmp sge i32 %42, 0
  br i1 %cmp31, label %if.then32, label %if.end33

if.then32:                                        ; preds = %if.else30
  %43 = load i32, ptr %limit32, align 4
  %44 = load i32, ptr %start32, align 4
  %sub = sub nsw i32 %43, %44
  store i32 %sub, ptr %di, align 4
  %45 = load i32, ptr %limit32, align 4
  store i32 %45, ptr %si, align 4
  br label %for.end

if.end33:                                         ; preds = %if.else30
  br label %if.end34

if.end34:                                         ; preds = %if.end33, %if.then25
  %46 = load i32, ptr %di, align 4
  %inc = add nsw i32 %46, 1
  store i32 %inc, ptr %di, align 4
  br label %for.inc

for.inc:                                          ; preds = %if.end34
  %47 = load i32, ptr %si, align 4
  %inc35 = add nsw i32 %47, 1
  store i32 %inc35, ptr %si, align 4
  br label %for.cond, !llvm.loop !23

for.end:                                          ; preds = %if.then32, %if.then19, %for.cond
  %48 = load i32, ptr %si, align 4
  %cmp36 = icmp sgt i32 %48, 0
  br i1 %cmp36, label %land.lhs.true37, label %if.end63

land.lhs.true37:                                  ; preds = %for.end
  %49 = load ptr, ptr %s, align 8
  %50 = load i32, ptr %si, align 4
  %sub38 = sub nsw i32 %50, 1
  %idxprom39 = sext i32 %sub38 to i64
  %arrayidx40 = getelementptr inbounds i16, ptr %49, i64 %idxprom39
  %51 = load i16, ptr %arrayidx40, align 2
  %conv41 = zext i16 %51 to i32
  %and = and i32 %conv41, -1024
  %cmp42 = icmp eq i32 %and, 55296
  br i1 %cmp42, label %land.lhs.true43, label %if.end63

land.lhs.true43:                                  ; preds = %land.lhs.true37
  %52 = load i32, ptr %si, align 4
  %53 = load i32, ptr %strLength, align 4
  %cmp44 = icmp slt i32 %52, %53
  br i1 %cmp44, label %land.lhs.true47, label %lor.lhs.false45

lor.lhs.false45:                                  ; preds = %land.lhs.true43
  %54 = load i32, ptr %strLength, align 4
  %cmp46 = icmp slt i32 %54, 0
  br i1 %cmp46, label %land.lhs.true47, label %if.end63

land.lhs.true47:                                  ; preds = %lor.lhs.false45, %land.lhs.true43
  %55 = load ptr, ptr %s, align 8
  %56 = load i32, ptr %si, align 4
  %idxprom48 = sext i32 %56 to i64
  %arrayidx49 = getelementptr inbounds i16, ptr %55, i64 %idxprom48
  %57 = load i16, ptr %arrayidx49, align 2
  %conv50 = zext i16 %57 to i32
  %and51 = and i32 %conv50, -1024
  %cmp52 = icmp eq i32 %and51, 56320
  br i1 %cmp52, label %if.then53, label %if.end63

if.then53:                                        ; preds = %land.lhs.true47
  %58 = load i32, ptr %di, align 4
  %59 = load i32, ptr %destCapacity.addr, align 4
  %cmp54 = icmp slt i32 %58, %59
  br i1 %cmp54, label %if.then55, label %if.end61

if.then55:                                        ; preds = %if.then53
  %60 = load ptr, ptr %s, align 8
  %61 = load i32, ptr %si, align 4
  %idxprom56 = sext i32 %61 to i64
  %arrayidx57 = getelementptr inbounds i16, ptr %60, i64 %idxprom56
  %62 = load i16, ptr %arrayidx57, align 2
  %63 = load ptr, ptr %dest.addr, align 8
  %64 = load i32, ptr %di, align 4
  %inc58 = add nsw i32 %64, 1
  store i32 %inc58, ptr %di, align 4
  %idxprom59 = sext i32 %64 to i64
  %arrayidx60 = getelementptr inbounds i16, ptr %63, i64 %idxprom59
  store i16 %62, ptr %arrayidx60, align 2
  br label %if.end61

if.end61:                                         ; preds = %if.then55, %if.then53
  %65 = load i32, ptr %si, align 4
  %inc62 = add nsw i32 %65, 1
  store i32 %inc62, ptr %si, align 4
  br label %if.end63

if.end63:                                         ; preds = %if.end61, %land.lhs.true47, %lor.lhs.false45, %land.lhs.true37, %for.end
  %66 = load i32, ptr %si, align 4
  %conv64 = sext i32 %66 to i64
  %67 = load ptr, ptr %ut.addr, align 8
  %chunkNativeLimit65 = getelementptr inbounds %struct.UText, ptr %67, i32 0, i32 4
  %68 = load i64, ptr %chunkNativeLimit65, align 8
  %cmp66 = icmp sle i64 %conv64, %68
  br i1 %cmp66, label %if.then67, label %if.else69

if.then67:                                        ; preds = %if.end63
  %69 = load i32, ptr %si, align 4
  %70 = load ptr, ptr %ut.addr, align 8
  %chunkOffset68 = getelementptr inbounds %struct.UText, ptr %70, i32 0, i32 8
  store i32 %69, ptr %chunkOffset68, align 8
  br label %if.end72

if.else69:                                        ; preds = %if.end63
  %71 = load ptr, ptr %ut.addr, align 8
  %72 = load i32, ptr %si, align 4
  %conv70 = sext i32 %72 to i64
  %call71 = call noundef signext i8 @_ZL15ucstrTextAccessP5UTextla(ptr noundef %71, i64 noundef %conv70, i8 noundef signext 1)
  br label %if.end72

if.end72:                                         ; preds = %if.else69, %if.then67
  %73 = load ptr, ptr %dest.addr, align 8
  %74 = load i32, ptr %destCapacity.addr, align 4
  %75 = load i32, ptr %di, align 4
  %76 = load ptr, ptr %pErrorCode.addr, align 8
  %call73 = call i32 @u_terminateUChars_75(ptr noundef %73, i32 noundef %74, i32 noundef %75, ptr noundef %76)
  %77 = load i32, ptr %di, align 4
  store i32 %77, ptr %retval, align 4
  br label %return

return:                                           ; preds = %if.end72, %if.then5, %if.then
  %78 = load i32, ptr %retval, align 4
  ret i32 %78
}