; Function Attrs: mustprogress uwtable
define internal noundef i32 @_ZL16ucstrTextExtractP5UTextllPDsiP10UErrorCode(ptr nocapture noundef %ut, i64 noundef %start, i64 noundef %limit, ptr noundef %dest, i32 noundef %destCapacity, ptr noundef %pErrorCode) #0 {
entry:
  %0 = load i32, ptr %pErrorCode, align 4
  %cmp.i = icmp slt i32 %0, 1
  br i1 %cmp.i, label %if.end, label %return

if.end:                                           ; preds = %entry
  %cmp = icmp slt i32 %destCapacity, 0
  br i1 %cmp, label %if.then5, label %lor.lhs.false

lor.lhs.false:                                    ; preds = %if.end
  %cmp1 = icmp eq ptr %dest, null
  %cmp2 = icmp ne i32 %destCapacity, 0
  %or.cond = and i1 %cmp1, %cmp2
  %cmp4 = icmp slt i64 %limit, %start
  %or.cond58 = or i1 %cmp4, %or.cond
  br i1 %or.cond58, label %if.then5, label %if.end6

if.then5:                                         ; preds = %lor.lhs.false, %if.end
  store i32 1, ptr %pErrorCode, align 4
  br label %return

if.end6:                                          ; preds = %lor.lhs.false
  %call7 = tail call noundef signext i8 @_ZL15ucstrTextAccessP5UTextla(ptr noundef %ut, i64 noundef %start, i8 noundef signext 1), !range !16
  %chunkContents = getelementptr inbounds i8, ptr %ut, i64 48
  %1 = load ptr, ptr %chunkContents, align 8
  %chunkOffset = getelementptr inbounds i8, ptr %ut, i64 40
  %2 = load i32, ptr %chunkOffset, align 8
  %a = getelementptr inbounds i8, ptr %ut, i64 112
  %3 = load i64, ptr %a, align 8
  %conv = trunc i64 %3 to i32
  %cmp8 = icmp sgt i32 %conv, -1
  br i1 %cmp8, label %if.then9, label %if.else

if.then9:                                         ; preds = %if.end6
  %conv10 = and i64 %3, 2147483647
  %spec.select = tail call i64 @llvm.umin.i64(i64 %conv10, i64 %limit)
  br label %if.end13

if.else:                                          ; preds = %if.end6
  %spec.select71 = tail call i64 @llvm.umin.i64(i64 %limit, i64 2147483647)
  br label %if.end13

if.end13:                                         ; preds = %if.else, %if.then9
  %spec.select71.sink = phi i64 [ %spec.select71, %if.else ], [ %spec.select, %if.then9 ]
  %cmp.i62.sink = icmp slt i64 %limit, 0
  %4 = trunc i64 %spec.select71.sink to i32
  %conv.i65 = select i1 %cmp.i62.sink, i32 0, i32 %4
  %cmp1476 = icmp slt i32 %2, %conv.i65
  br i1 %cmp1476, label %for.body.lr.ph, label %for.end

for.body.lr.ph:                                   ; preds = %if.end13
  %cmp15 = icmp slt i32 %conv, 0
  %5 = sext i32 %2 to i64
  %6 = zext nneg i32 %destCapacity to i64
  %7 = sub i32 %conv.i65, %2
  %wide.trip.count124 = zext i32 %7 to i64
  br i1 %cmp15, label %for.body.us, label %for.body.us84

for.body.us:                                      ; preds = %for.body.lr.ph, %if.end34.us
  %indvars.iv119 = phi i64 [ %indvars.iv.next120, %if.end34.us ], [ 0, %for.body.lr.ph ]
  %indvars.iv117 = phi i64 [ %indvars.iv.next118, %if.end34.us ], [ %5, %for.body.lr.ph ]
  %arrayidx.us = getelementptr inbounds i16, ptr %1, i64 %indvars.iv117
  %8 = load i16, ptr %arrayidx.us, align 2
  %cmp18.us = icmp eq i16 %8, 0
  br i1 %cmp18.us, label %if.then19, label %if.end23.us

if.end23.us:                                      ; preds = %for.body.us
  %cmp24.us = icmp ult i64 %indvars.iv119, %6
  br i1 %cmp24.us, label %if.then25.us, label %if.end34.us

if.then25.us:                                     ; preds = %if.end23.us
  %arrayidx29.us = getelementptr inbounds i16, ptr %dest, i64 %indvars.iv119
  store i16 %8, ptr %arrayidx29.us, align 2
  br label %if.end34.us

if.end34.us:                                      ; preds = %if.end23.us, %if.then25.us
  %indvars.iv.next120 = add nuw nsw i64 %indvars.iv119, 1
  %indvars.iv.next118 = add nsw i64 %indvars.iv117, 1
  %exitcond125.not = icmp eq i64 %indvars.iv.next120, %wide.trip.count124
  br i1 %exitcond125.not, label %for.end.loopexit, label %for.body.us, !llvm.loop !22

for.body.us84:                                    ; preds = %for.body.lr.ph, %if.then25.us89
  %indvars.iv110 = phi i64 [ %indvars.iv.next111, %if.then25.us89 ], [ 0, %for.body.lr.ph ]
  %indvars.iv = phi i64 [ %indvars.iv.next, %if.then25.us89 ], [ %5, %for.body.lr.ph ]
  %exitcond.not = icmp eq i64 %indvars.iv110, %6
  br i1 %exitcond.not, label %for.end, label %if.then25.us89

if.then25.us89:                                   ; preds = %for.body.us84
  %arrayidx27.us91 = getelementptr inbounds i16, ptr %1, i64 %indvars.iv
  %9 = load i16, ptr %arrayidx27.us91, align 2
  %arrayidx29.us93 = getelementptr inbounds i16, ptr %dest, i64 %indvars.iv110
  store i16 %9, ptr %arrayidx29.us93, align 2
  %indvars.iv.next111 = add nuw nsw i64 %indvars.iv110, 1
  %indvars.iv.next = add nsw i64 %indvars.iv, 1
  %exitcond116.not = icmp eq i64 %indvars.iv.next111, %wide.trip.count124
  br i1 %exitcond116.not, label %for.end.loopexit106, label %for.body.us84, !llvm.loop !22

if.then19:                                        ; preds = %for.body.us
  %10 = trunc i64 %indvars.iv119 to i32
  %11 = trunc i64 %indvars.iv117 to i32
  store i64 %indvars.iv117, ptr %a, align 8
  %chunkNativeLimit = getelementptr inbounds i8, ptr %ut, i64 16
  store i64 %indvars.iv117, ptr %chunkNativeLimit, align 8
  %chunkLength = getelementptr inbounds i8, ptr %ut, i64 44
  store i32 %11, ptr %chunkLength, align 4
  %nativeIndexingLimit = getelementptr inbounds i8, ptr %ut, i64 28
  store i32 %11, ptr %nativeIndexingLimit, align 4
  br label %for.end

for.end.loopexit:                                 ; preds = %if.end34.us
  %12 = trunc i64 %indvars.iv.next118 to i32
  br label %for.end

for.end.loopexit106:                              ; preds = %if.then25.us89
  %13 = trunc i64 %indvars.iv.next to i32
  br label %for.end

for.end:                                          ; preds = %for.body.us84, %for.end.loopexit106, %for.end.loopexit, %if.end13, %if.then19
  %di.1 = phi i32 [ %10, %if.then19 ], [ 0, %if.end13 ], [ %7, %for.end.loopexit ], [ %7, %for.end.loopexit106 ], [ %7, %for.body.us84 ]
  %si.1 = phi i32 [ %11, %if.then19 ], [ %2, %if.end13 ], [ %12, %for.end.loopexit ], [ %13, %for.end.loopexit106 ], [ %conv.i65, %for.body.us84 ]
  %strLength.0 = phi i32 [ %11, %if.then19 ], [ %conv, %if.end13 ], [ %conv, %for.end.loopexit ], [ %conv, %for.end.loopexit106 ], [ %conv, %for.body.us84 ]
  %cmp36 = icmp sgt i32 %si.1, 0
  br i1 %cmp36, label %land.lhs.true37, label %if.end63

land.lhs.true37:                                  ; preds = %for.end
  %14 = zext nneg i32 %si.1 to i64
  %15 = getelementptr i16, ptr %1, i64 %14
  %arrayidx40 = getelementptr i8, ptr %15, i64 -2
  %16 = load i16, ptr %arrayidx40, align 2
  %17 = and i16 %16, -1024
  %cmp42 = icmp eq i16 %17, -10240
  %or.cond1 = icmp ugt i32 %strLength.0, %si.1
  %or.cond59 = and i1 %or.cond1, %cmp42
  br i1 %or.cond59, label %land.lhs.true47, label %if.end63

land.lhs.true47:                                  ; preds = %land.lhs.true37
  %18 = load i16, ptr %15, align 2
  %19 = and i16 %18, -1024
  %cmp52 = icmp eq i16 %19, -9216
  br i1 %cmp52, label %if.then53, label %if.end63

if.then53:                                        ; preds = %land.lhs.true47
  %cmp54 = icmp slt i32 %di.1, %destCapacity
  br i1 %cmp54, label %if.then55, label %if.end61

if.then55:                                        ; preds = %if.then53
  %inc58 = add nsw i32 %di.1, 1
  %idxprom59 = sext i32 %di.1 to i64
  %arrayidx60 = getelementptr inbounds i16, ptr %dest, i64 %idxprom59
  store i16 %18, ptr %arrayidx60, align 2
  br label %if.end61

if.end61:                                         ; preds = %if.then55, %if.then53
  %di.2 = phi i32 [ %inc58, %if.then55 ], [ %di.1, %if.then53 ]
  %inc62 = add nuw nsw i32 %si.1, 1
  br label %if.end63

if.end63:                                         ; preds = %if.end61, %land.lhs.true47, %land.lhs.true37, %for.end
  %di.3 = phi i32 [ %di.2, %if.end61 ], [ %di.1, %land.lhs.true47 ], [ %di.1, %land.lhs.true37 ], [ %di.1, %for.end ]
  %si.2 = phi i32 [ %inc62, %if.end61 ], [ %si.1, %land.lhs.true47 ], [ %si.1, %land.lhs.true37 ], [ %si.1, %for.end ]
  %conv64 = sext i32 %si.2 to i64
  %chunkNativeLimit65 = getelementptr inbounds i8, ptr %ut, i64 16
  %20 = load i64, ptr %chunkNativeLimit65, align 8
  %cmp66.not = icmp slt i64 %20, %conv64
  br i1 %cmp66.not, label %if.else69, label %if.then67

if.then67:                                        ; preds = %if.end63
  store i32 %si.2, ptr %chunkOffset, align 8
  br label %if.end72

if.else69:                                        ; preds = %if.end63
  %call71 = tail call noundef signext i8 @_ZL15ucstrTextAccessP5UTextla(ptr noundef nonnull %ut, i64 noundef %conv64, i8 noundef signext 1), !range !16
  br label %if.end72

if.end72:                                         ; preds = %if.else69, %if.then67
  %call73 = tail call i32 @u_terminateUChars_75(ptr noundef %dest, i32 noundef %destCapacity, i32 noundef %di.3, ptr noundef nonnull %pErrorCode)
  br label %return

return:                                           ; preds = %entry, %if.end72, %if.then5
  %retval.0 = phi i32 [ 0, %if.then5 ], [ %di.3, %if.end72 ], [ 0, %entry ]
  ret i32 %retval.0
}